; Function Attrs: nofree norecurse nosync nounwind memory(readwrite, inaccessiblemem: none) uwtable
define i32 @ff_vvc_intra_luma_mpm_idx(ptr noundef readonly captures(none) %0) local_unnamed_addr #3 {
  %2 = getelementptr inbounds nuw i8, ptr %0, i64 4580560
  %3 = load ptr, ptr %2, align 16, !tbaa !67
  %4 = getelementptr inbounds nuw i8, ptr %3, i64 2672
  %5 = getelementptr inbounds nuw i8, ptr %3, i64 2688
  %6 = getelementptr inbounds nuw i8, ptr %3, i64 2696
  %7 = getelementptr inbounds nuw i8, ptr %3, i64 2676
  %8 = load i32, ptr %7, align 4, !tbaa !100
  %9 = shl i32 %8, 17
  %.promoted = load i32, ptr %4, align 8, !tbaa !70
  br label %10

10:                                               ; preds = %1, %32
  %11 = phi i32 [ %.promoted, %1 ], [ %33, %32 ]
  %.05 = phi i32 [ 0, %1 ], [ %34, %32 ]
  %12 = shl nsw i32 %11, 1
  store i32 %12, ptr %4, align 8, !tbaa !70
  %13 = and i32 %11, 32767
  %.not.i = icmp eq i32 %13, 0
  br i1 %.not.i, label %14, label %refill.exit.i

14:                                               ; preds = %10
  %15 = load ptr, ptr %5, align 8, !tbaa !68
  %16 = load i8, ptr %15, align 1, !tbaa !97
  %17 = zext i8 %16 to i32
  %18 = shl nuw nsw i32 %17, 9
  %19 = getelementptr inbounds nuw i8, ptr %15, i64 1
  %20 = load i8, ptr %19, align 1, !tbaa !97
  %21 = zext i8 %20 to i32
  %22 = shl nuw nsw i32 %21, 1
  %23 = or disjoint i32 %22, %18
  %24 = add i32 %12, -65535
  %25 = add i32 %24, %23
  store i32 %25, ptr %4, align 8, !tbaa !70
  %26 = load ptr, ptr %6, align 8, !tbaa !71
  %27 = icmp ult ptr %15, %26
  br i1 %27, label %28, label %refill.exit.i

28:                                               ; preds = %14
  %29 = getelementptr inbounds nuw i8, ptr %15, i64 2
  store ptr %29, ptr %5, align 8, !tbaa !68
  br label %refill.exit.i

refill.exit.i:                                    ; preds = %28, %14, %10
  %30 = phi i32 [ %25, %28 ], [ %25, %14 ], [ %12, %10 ]
  %31 = icmp slt i32 %30, %9
  br i1 %31, label %.critedge, label %32

32:                                               ; preds = %refill.exit.i
  %33 = sub nsw i32 %30, %9
  store i32 %33, ptr %4, align 8, !tbaa !70
  %34 = add nuw nsw i32 %.05, 1
  %exitcond.not = icmp eq i32 %34, 4
  br i1 %exitcond.not, label %.critedge, label %10, !llvm.loop !135

.critedge:                                        ; preds = %refill.exit.i, %32
  %.0.lcssa = phi i32 [ %.05, %refill.exit.i ], [ 4, %32 ]
  ret i32 %.0.lcssa
}